; Function Attrs: nofree nounwind uwtable
define internal range(i32 0, 9) i32 @FileSeqInStream_Read(ptr noundef readonly captures(none) %0, ptr noundef captures(none) %1, ptr noundef captures(none) %2) #1 {
  %4 = getelementptr inbounds nuw i8, ptr %0, i64 8
  %5 = load i64, ptr %2, align 8, !tbaa !12
  %6 = icmp eq i64 %5, 0
  br i1 %6, label %File_Read.exit.thread, label %7

7:                                                ; preds = %3
  %8 = load ptr, ptr %4, align 8, !tbaa !3
  %9 = tail call i64 @fread(ptr noundef %1, i64 noundef 1, i64 noundef %5, ptr noundef %8)
  store i64 %9, ptr %2, align 8, !tbaa !12
  %10 = icmp eq i64 %9, %5
  br i1 %10, label %File_Read.exit.thread, label %File_Read.exit

File_Read.exit:                                   ; preds = %7
  %11 = load ptr, ptr %4, align 8, !tbaa !3
  %12 = tail call i32 @ferror(ptr noundef %11) #6
  %13 = icmp eq i32 %12, 0
  br i1 %13, label %File_Read.exit.thread, label %14

File_Read.exit.thread:                            ; preds = %7, %3, %File_Read.exit
  br label %14

14:                                               ; preds = %File_Read.exit, %File_Read.exit.thread
  %15 = phi i32 [ 0, %File_Read.exit.thread ], [ 8, %File_Read.exit ]
  ret i32 %15
}